target datalayout = "e-m:e-p270:32:32-p271:32:32-p272:64:64-i64:64-i128:128-f80:128-n8:16:32:64-S128"
target triple = "x86_64-pc-linux-gnu"

%struct.AVFormatContext = type { ptr, ptr, ptr, ptr, ptr, i32, i32, ptr, i32, ptr, i32, ptr, ptr, i64, i64, i64, i32, i32, i32, i64, i64, ptr, i32, i32, ptr, i32, i32, i32, i32, ptr, i64, i32, i32, %struct.AVIOInterruptCB, i32, i32, i32, i32, i64, i32, i32, i32, i32, i32, i32, i32, i32, i32, i32, i32, i32, i64, i32, i32, i32, i32, i32, ptr, ptr, ptr, ptr, i32, ptr, ptr, ptr, ptr, i32, ptr, ptr, i64, ptr, ptr, ptr, i64 }
%struct.AVIOInterruptCB = type { ptr, ptr }
%struct.AVStream = type { ptr, i32, i32, ptr, ptr, %struct.AVRational, i64, i64, i64, i32, i32, %struct.AVRational, ptr, %struct.AVRational, %struct.AVPacket, i32, %struct.AVRational, i32 }
%struct.AVPacket = type { ptr, i64, i64, ptr, i32, i32, i32, ptr, i32, i64, i64, ptr, ptr, %struct.AVRational }
%struct.AVRational = type { i32, i32 }
%struct.AVCodecParameters = type { i32, i32, i32, ptr, i32, ptr, i32, i32, i64, i32, i32, i32, i32, i32, i32, %struct.AVRational, %struct.AVRational, i32, i32, i32, i32, i32, i32, i32, %struct.AVChannelLayout, i32, i32, i32, i32, i32, i32 }
%struct.AVChannelLayout = type { i32, i32, %union.anon, ptr }
%union.anon = type { i64 }
%struct.LC3DemuxContext = type { i32, i64 }

@.str.2 = private unnamed_addr constant [33 x i8] c"Invalid LC3 sample rate: %d Hz.\0A\00", align 1
@.str.3 = private unnamed_addr constant [38 x i8] c"Invalid LC3 frame duration: %.1f ms.\0A\00", align 1

; Function Attrs: nounwind uwtable
define internal i32 @check_frame_length(ptr noundef %0, i32 noundef %1, i32 noundef %2) #0 {
  %4 = alloca i32, align 4
  %5 = alloca ptr, align 8
  %6 = alloca i32, align 4
  %7 = alloca i32, align 4
  store ptr %0, ptr %5, align 8, !tbaa !82
  store i32 %1, ptr %6, align 4, !tbaa !15
  store i32 %2, ptr %7, align 4, !tbaa !15
  %8 = load i32, ptr %6, align 4, !tbaa !15
  %9 = icmp ne i32 %8, 8000
  br i1 %9, label %10, label %32

10:                                               ; preds = %3
  %11 = load i32, ptr %6, align 4, !tbaa !15
  %12 = icmp ne i32 %11, 16000
  br i1 %12, label %13, label %32

13:                                               ; preds = %10
  %14 = load i32, ptr %6, align 4, !tbaa !15
  %15 = icmp ne i32 %14, 24000
  br i1 %15, label %16, label %32

16:                                               ; preds = %13
  %17 = load i32, ptr %6, align 4, !tbaa !15
  %18 = icmp ne i32 %17, 32000
  br i1 %18, label %19, label %32

19:                                               ; preds = %16
  %20 = load i32, ptr %6, align 4, !tbaa !15
  %21 = icmp ne i32 %20, 48000
  br i1 %21, label %22, label %32

22:                                               ; preds = %19
  %23 = load i32, ptr %6, align 4, !tbaa !15
  %24 = icmp ne i32 %23, 96000
  br i1 %24, label %25, label %32

25:                                               ; preds = %22
  %26 = load ptr, ptr %5, align 8, !tbaa !82
  %27 = icmp ne ptr %26, null
  br i1 %27, label %28, label %31

28:                                               ; preds = %25
  %29 = load ptr, ptr %5, align 8, !tbaa !82
  %30 = load i32, ptr %6, align 4, !tbaa !15
  call void (ptr, i32, ptr, ...) @av_log(ptr noundef %29, i32 noundef 16, ptr noundef @.str.2, i32 noundef %30)
  br label %31

31:                                               ; preds = %28, %25
  store i32 -1, ptr %4, align 4
  br label %55

32:                                               ; preds = %22, %19, %16, %13, %10, %3
  %33 = load i32, ptr %7, align 4, !tbaa !15
  %34 = icmp ne i32 %33, 2500
  br i1 %34, label %35, label %54

35:                                               ; preds = %32
  %36 = load i32, ptr %7, align 4, !tbaa !15
  %37 = icmp ne i32 %36, 5000
  br i1 %37, label %38, label %54

38:                                               ; preds = %35
  %39 = load i32, ptr %7, align 4, !tbaa !15
  %40 = icmp ne i32 %39, 7500
  br i1 %40, label %41, label %54

41:                                               ; preds = %38
  %42 = load i32, ptr %7, align 4, !tbaa !15
  %43 = icmp ne i32 %42, 10000
  br i1 %43, label %44, label %54

44:                                               ; preds = %41
  %45 = load ptr, ptr %5, align 8, !tbaa !82
  %46 = icmp ne ptr %45, null
  br i1 %46, label %47, label %53

47:                                               ; preds = %44
  %48 = load ptr, ptr %5, align 8, !tbaa !82
  %49 = load i32, ptr %7, align 4, !tbaa !15
  %50 = sitofp i32 %49 to float
  %51 = fdiv nsz float %50, 1.000000e+03
  %52 = fpext nsz float %51 to double
  call void (ptr, i32, ptr, ...) @av_log(ptr noundef %48, i32 noundef 16, ptr noundef @.str.3, double noundef %52)
  br label %53

53:                                               ; preds = %47, %44
  store i32 -1, ptr %4, align 4
  br label %55

54:                                               ; preds = %41, %38, %35, %32
  store i32 0, ptr %4, align 4
  br label %55

55:                                               ; preds = %54, %53, %31
  %56 = load i32, ptr %4, align 4
  ret i32 %56
}

; Function Attrs: nounwind uwtable
define internal i32 @lc3_read_header(ptr noundef %0) #0 {
  %2 = alloca i32, align 4
  %3 = alloca ptr, align 8
  %4 = alloca ptr, align 8
  %5 = alloca ptr, align 8
  %6 = alloca i16, align 2
  %7 = alloca i16, align 2
  %8 = alloca i32, align 4
  %9 = alloca i32, align 4
  %10 = alloca i32, align 4
  %11 = alloca i32, align 4
  %12 = alloca i32, align 4
  %13 = alloca i32, align 4
  %14 = alloca i32, align 4
  %15 = alloca i32, align 4
  %16 = alloca i32, align 4
  %17 = alloca i32, align 4
  %18 = alloca i32, align 4
  store ptr %0, ptr %3, align 8, !tbaa !16
  call void @llvm.lifetime.start.p0(i64 8, ptr %4) #6
  %19 = load ptr, ptr %3, align 8, !tbaa !16
  %20 = getelementptr inbounds nuw %struct.AVFormatContext, ptr %19, i32 0, i32 3
  %21 = load ptr, ptr %20, align 8, !tbaa !18
  store ptr %21, ptr %4, align 8, !tbaa !33
  call void @llvm.lifetime.start.p0(i64 8, ptr %5) #6
  store ptr null, ptr %5, align 8, !tbaa !35
  call void @llvm.lifetime.start.p0(i64 2, ptr %6) #6
  call void @llvm.lifetime.start.p0(i64 2, ptr %7) #6
  call void @llvm.lifetime.start.p0(i64 4, ptr %8) #6
  call void @llvm.lifetime.start.p0(i64 4, ptr %9) #6
  call void @llvm.lifetime.start.p0(i64 4, ptr %10) #6
  call void @llvm.lifetime.start.p0(i64 4, ptr %11) #6
  call void @llvm.lifetime.start.p0(i64 4, ptr %12) #6
  call void @llvm.lifetime.start.p0(i64 4, ptr %13) #6
  call void @llvm.lifetime.start.p0(i64 4, ptr %14) #6
  call void @llvm.lifetime.start.p0(i64 4, ptr %15) #6
  call void @llvm.lifetime.start.p0(i64 4, ptr %16) #6
  call void @llvm.lifetime.start.p0(i64 4, ptr %17) #6
  %22 = load ptr, ptr %3, align 8, !tbaa !16
  %23 = getelementptr inbounds nuw %struct.AVFormatContext, ptr %22, i32 0, i32 4
  %24 = load ptr, ptr %23, align 8, !tbaa !37
  %25 = call i32 @avio_rb16(ptr noundef %24)
  %26 = trunc i32 %25 to i16
  store i16 %26, ptr %6, align 2, !tbaa !38
  %27 = load ptr, ptr %3, align 8, !tbaa !16
  %28 = getelementptr inbounds nuw %struct.AVFormatContext, ptr %27, i32 0, i32 4
  %29 = load ptr, ptr %28, align 8, !tbaa !37
  %30 = call i32 @avio_rl16(ptr noundef %29)
  %31 = trunc i32 %30 to i16
  store i16 %31, ptr %7, align 2, !tbaa !38
  %32 = load i16, ptr %6, align 2, !tbaa !38
  %33 = zext i16 %32 to i32
  %34 = icmp ne i32 %33, 7372
  br i1 %34, label %39, label %35

35:                                               ; preds = %1
  %36 = load i16, ptr %7, align 2, !tbaa !38
  %37 = zext i16 %36 to i64
  %38 = icmp ult i64 %37, 18
  br i1 %38, label %39, label %40

39:                                               ; preds = %35, %1
  store i32 -1094995529, ptr %2, align 4
  store i32 1, ptr %18, align 4
  br label %193

40:                                               ; preds = %35
  %41 = load i16, ptr %7, align 2, !tbaa !38
  %42 = zext i16 %41 to i64
  %43 = udiv i64 %42, 2
  %44 = sub i64 %43, 9
  %45 = trunc i64 %44 to i32
  store i32 %45, ptr %15, align 4, !tbaa !15
  %46 = load ptr, ptr %3, align 8, !tbaa !16
  %47 = getelementptr inbounds nuw %struct.AVFormatContext, ptr %46, i32 0, i32 4
  %48 = load ptr, ptr %47, align 8, !tbaa !37
  %49 = call i32 @avio_rl16(ptr noundef %48)
  %50 = mul i32 %49, 100
  store i32 %50, ptr %9, align 4, !tbaa !15
  %51 = load ptr, ptr %3, align 8, !tbaa !16
  %52 = getelementptr inbounds nuw %struct.AVFormatContext, ptr %51, i32 0, i32 4
  %53 = load ptr, ptr %52, align 8, !tbaa !37
  %54 = call i32 @avio_rl16(ptr noundef %53)
  %55 = mul i32 %54, 100
  store i32 %55, ptr %12, align 4, !tbaa !15
  %56 = load ptr, ptr %3, align 8, !tbaa !16
  %57 = getelementptr inbounds nuw %struct.AVFormatContext, ptr %56, i32 0, i32 4
  %58 = load ptr, ptr %57, align 8, !tbaa !37
  %59 = call i32 @avio_rl16(ptr noundef %58)
  store i32 %59, ptr %11, align 4, !tbaa !15
  %60 = load ptr, ptr %3, align 8, !tbaa !16
  %61 = getelementptr inbounds nuw %struct.AVFormatContext, ptr %60, i32 0, i32 4
  %62 = load ptr, ptr %61, align 8, !tbaa !37
  %63 = call i32 @avio_rl16(ptr noundef %62)
  %64 = mul i32 %63, 10
  store i32 %64, ptr %10, align 4, !tbaa !15
  %65 = load ptr, ptr %3, align 8, !tbaa !16
  %66 = getelementptr inbounds nuw %struct.AVFormatContext, ptr %65, i32 0, i32 4
  %67 = load ptr, ptr %66, align 8, !tbaa !37
  %68 = call i32 @avio_rl16(ptr noundef %67)
  %69 = icmp ne i32 %68, 0
  %70 = zext i1 %69 to i32
  store i32 %70, ptr %13, align 4, !tbaa !15
  %71 = load ptr, ptr %3, align 8, !tbaa !16
  %72 = getelementptr inbounds nuw %struct.AVFormatContext, ptr %71, i32 0, i32 4
  %73 = load ptr, ptr %72, align 8, !tbaa !37
  %74 = call i32 @avio_rl32(ptr noundef %73)
  store i32 %74, ptr %8, align 4, !tbaa !15
  %75 = load i32, ptr %15, align 4, !tbaa !15
  %76 = icmp sge i32 %75, 1
  br i1 %76, label %77, label %83

77:                                               ; preds = %40
  %78 = load ptr, ptr %3, align 8, !tbaa !16
  %79 = getelementptr inbounds nuw %struct.AVFormatContext, ptr %78, i32 0, i32 4
  %80 = load ptr, ptr %79, align 8, !tbaa !37
  %81 = call i32 @avio_rl16(ptr noundef %80)
  %82 = icmp ne i32 %81, 0
  br label %83

83:                                               ; preds = %77, %40
  %84 = phi i1 [ false, %40 ], [ %82, %77 ]
  %85 = zext i1 %84 to i32
  store i32 %85, ptr %14, align 4, !tbaa !15
  %86 = load ptr, ptr %3, align 8, !tbaa !16
  %87 = load i32, ptr %9, align 4, !tbaa !15
  %88 = load i32, ptr %10, align 4, !tbaa !15
  %89 = call i32 @check_frame_length(ptr noundef %86, i32 noundef %87, i32 noundef %88)
  %90 = icmp slt i32 %89, 0
  br i1 %90, label %91, label %92

91:                                               ; preds = %83
  store i32 -1094995529, ptr %2, align 4
  store i32 1, ptr %18, align 4
  br label %193

92:                                               ; preds = %83
  %93 = load ptr, ptr %3, align 8, !tbaa !16
  %94 = call ptr @avformat_new_stream(ptr noundef %93, ptr noundef null)
  store ptr %94, ptr %5, align 8, !tbaa !35
  %95 = load ptr, ptr %5, align 8, !tbaa !35
  %96 = icmp ne ptr %95, null
  br i1 %96, label %98, label %97

97:                                               ; preds = %92
  store i32 -12, ptr %2, align 4
  store i32 1, ptr %18, align 4
  br label %193

98:                                               ; preds = %92
  %99 = load ptr, ptr %5, align 8, !tbaa !35
  %100 = load i32, ptr %9, align 4, !tbaa !15
  call void @avpriv_set_pts_info(ptr noundef %99, i32 noundef 64, i32 noundef 1, i32 noundef %100)
  %101 = load ptr, ptr %3, align 8, !tbaa !16
  %102 = load ptr, ptr %5, align 8, !tbaa !35
  call void @avpriv_update_cur_dts(ptr noundef %101, ptr noundef %102, i64 noundef 0)
  %103 = load i32, ptr %8, align 4, !tbaa !15
  %104 = zext i32 %103 to i64
  %105 = load ptr, ptr %5, align 8, !tbaa !35
  %106 = getelementptr inbounds nuw %struct.AVStream, ptr %105, i32 0, i32 7
  store i64 %104, ptr %106, align 8, !tbaa !40
  %107 = load ptr, ptr %5, align 8, !tbaa !35
  %108 = getelementptr inbounds nuw %struct.AVStream, ptr %107, i32 0, i32 3
  %109 = load ptr, ptr %108, align 8, !tbaa !47
  %110 = getelementptr inbounds nuw %struct.AVCodecParameters, ptr %109, i32 0, i32 0
  store i32 1, ptr %110, align 8, !tbaa !48
  %111 = load ptr, ptr %5, align 8, !tbaa !35
  %112 = getelementptr inbounds nuw %struct.AVStream, ptr %111, i32 0, i32 3
  %113 = load ptr, ptr %112, align 8, !tbaa !47
  %114 = getelementptr inbounds nuw %struct.AVCodecParameters, ptr %113, i32 0, i32 1
  store i32 86122, ptr %114, align 4, !tbaa !51
  %115 = load i32, ptr %9, align 4, !tbaa !15
  %116 = load ptr, ptr %5, align 8, !tbaa !35
  %117 = getelementptr inbounds nuw %struct.AVStream, ptr %116, i32 0, i32 3
  %118 = load ptr, ptr %117, align 8, !tbaa !47
  %119 = getelementptr inbounds nuw %struct.AVCodecParameters, ptr %118, i32 0, i32 25
  store i32 %115, ptr %119, align 8, !tbaa !52
  %120 = load i32, ptr %12, align 4, !tbaa !15
  %121 = sext i32 %120 to i64
  %122 = load ptr, ptr %5, align 8, !tbaa !35
  %123 = getelementptr inbounds nuw %struct.AVStream, ptr %122, i32 0, i32 3
  %124 = load ptr, ptr %123, align 8, !tbaa !47
  %125 = getelementptr inbounds nuw %struct.AVCodecParameters, ptr %124, i32 0, i32 8
  store i64 %121, ptr %125, align 8, !tbaa !53
  %126 = load i32, ptr %11, align 4, !tbaa !15
  %127 = load ptr, ptr %5, align 8, !tbaa !35
  %128 = getelementptr inbounds nuw %struct.AVStream, ptr %127, i32 0, i32 3
  %129 = load ptr, ptr %128, align 8, !tbaa !47
  %130 = getelementptr inbounds nuw %struct.AVCodecParameters, ptr %129, i32 0, i32 24
  %131 = getelementptr inbounds nuw %struct.AVChannelLayout, ptr %130, i32 0, i32 1
  store i32 %126, ptr %131, align 4, !tbaa !54
  %132 = load ptr, ptr %5, align 8, !tbaa !35
  %133 = getelementptr inbounds nuw %struct.AVStream, ptr %132, i32 0, i32 3
  %134 = load ptr, ptr %133, align 8, !tbaa !47
  %135 = call i32 @ff_alloc_extradata(ptr noundef %134, i32 noundef 6)
  store i32 %135, ptr %17, align 4, !tbaa !15
  %136 = icmp slt i32 %135, 0
  br i1 %136, label %137, label %139

137:                                              ; preds = %98
  %138 = load i32, ptr %17, align 4, !tbaa !15
  store i32 %138, ptr %2, align 4
  store i32 1, ptr %18, align 4
  br label %193

139:                                              ; preds = %98
  %140 = load i32, ptr %10, align 4, !tbaa !15
  %141 = sdiv i32 %140, 10
  %142 = trunc i32 %141 to i16
  %143 = load ptr, ptr %5, align 8, !tbaa !35
  %144 = getelementptr inbounds nuw %struct.AVStream, ptr %143, i32 0, i32 3
  %145 = load ptr, ptr %144, align 8, !tbaa !47
  %146 = getelementptr inbounds nuw %struct.AVCodecParameters, ptr %145, i32 0, i32 3
  %147 = load ptr, ptr %146, align 8, !tbaa !55
  %148 = getelementptr inbounds i8, ptr %147, i64 0
  store i16 %142, ptr %148, align 1, !tbaa !14
  %149 = load i32, ptr %13, align 4, !tbaa !15
  %150 = trunc i32 %149 to i16
  %151 = load ptr, ptr %5, align 8, !tbaa !35
  %152 = getelementptr inbounds nuw %struct.AVStream, ptr %151, i32 0, i32 3
  %153 = load ptr, ptr %152, align 8, !tbaa !47
  %154 = getelementptr inbounds nuw %struct.AVCodecParameters, ptr %153, i32 0, i32 3
  %155 = load ptr, ptr %154, align 8, !tbaa !55
  %156 = getelementptr inbounds i8, ptr %155, i64 2
  store i16 %150, ptr %156, align 1, !tbaa !14
  %157 = load i32, ptr %14, align 4, !tbaa !15
  %158 = trunc i32 %157 to i16
  %159 = load ptr, ptr %5, align 8, !tbaa !35
  %160 = getelementptr inbounds nuw %struct.AVStream, ptr %159, i32 0, i32 3
  %161 = load ptr, ptr %160, align 8, !tbaa !47
  %162 = getelementptr inbounds nuw %struct.AVCodecParameters, ptr %161, i32 0, i32 3
  %163 = load ptr, ptr %162, align 8, !tbaa !55
  %164 = getelementptr inbounds i8, ptr %163, i64 4
  store i16 %158, ptr %164, align 1, !tbaa !14
  %165 = load i32, ptr %10, align 4, !tbaa !15
  %166 = sext i32 %165 to i64
  %167 = load i32, ptr %9, align 4, !tbaa !15
  %168 = sext i32 %167 to i64
  %169 = call i64 @av_rescale(i64 noundef %166, i64 noundef %168, i64 noundef 1000000) #7
  %170 = trunc i64 %169 to i32
  %171 = load ptr, ptr %4, align 8, !tbaa !33
  %172 = getelementptr inbounds nuw %struct.LC3DemuxContext, ptr %171, i32 0, i32 0
  store i32 %170, ptr %172, align 8, !tbaa !56
  %173 = load i32, ptr %10, align 4, !tbaa !15
  %174 = icmp eq i32 %173, 7500
  %175 = select i1 %174, i32 4000, i32 2500
  %176 = sext i32 %175 to i64
  %177 = load i32, ptr %9, align 4, !tbaa !15
  %178 = sext i32 %177 to i64
  %179 = call i64 @av_rescale(i64 noundef %176, i64 noundef %178, i64 noundef 1000000) #7
  %180 = trunc i64 %179 to i32
  store i32 %180, ptr %16, align 4, !tbaa !15
  %181 = load i32, ptr %8, align 4, !tbaa !15
  %182 = icmp ne i32 %181, 0
  br i1 %182, label %183, label %187

183:                                              ; preds = %139
  %184 = load i32, ptr %8, align 4, !tbaa !15
  %185 = load i32, ptr %16, align 4, !tbaa !15
  %186 = add i32 %184, %185
  br label %188

187:                                              ; preds = %139
  br label %188

188:                                              ; preds = %187, %183
  %189 = phi i32 [ %186, %183 ], [ -1, %187 ]
  %190 = zext i32 %189 to i64
  %191 = load ptr, ptr %4, align 8, !tbaa !33
  %192 = getelementptr inbounds nuw %struct.LC3DemuxContext, ptr %191, i32 0, i32 1
  store i64 %190, ptr %192, align 8, !tbaa !58
  store i32 0, ptr %2, align 4
  store i32 1, ptr %18, align 4
  br label %193

193:                                              ; preds = %188, %137, %97, %91, %39
  call void @llvm.lifetime.end.p0(i64 4, ptr %17) #6
  call void @llvm.lifetime.end.p0(i64 4, ptr %16) #6
  call void @llvm.lifetime.end.p0(i64 4, ptr %15) #6
  call void @llvm.lifetime.end.p0(i64 4, ptr %14) #6
  call void @llvm.lifetime.end.p0(i64 4, ptr %13) #6
  call void @llvm.lifetime.end.p0(i64 4, ptr %12) #6
  call void @llvm.lifetime.end.p0(i64 4, ptr %11) #6
  call void @llvm.lifetime.end.p0(i64 4, ptr %10) #6
  call void @llvm.lifetime.end.p0(i64 4, ptr %9) #6
  call void @llvm.lifetime.end.p0(i64 4, ptr %8) #6
  call void @llvm.lifetime.end.p0(i64 2, ptr %7) #6
  call void @llvm.lifetime.end.p0(i64 2, ptr %6) #6
  call void @llvm.lifetime.end.p0(i64 8, ptr %5) #6
  call void @llvm.lifetime.end.p0(i64 8, ptr %4) #6
  %194 = load i32, ptr %2, align 4
  ret i32 %194
}