; Function Attrs: nounwind uwtable
define internal range(i32 -2147483648, 1) i32 @lc3_read_header(ptr noundef %0) #1 {
  %2 = getelementptr inbounds nuw i8, ptr %0, i64 24
  %3 = load ptr, ptr %2, align 8, !tbaa !13
  %4 = getelementptr inbounds nuw i8, ptr %0, i64 32
  %5 = load ptr, ptr %4, align 8, !tbaa !28
  %6 = tail call i32 @avio_rb16(ptr noundef %5) #5
  %7 = load ptr, ptr %4, align 8, !tbaa !28
  %8 = tail call i32 @avio_rl16(ptr noundef %7) #5
  %9 = and i32 %6, 65535
  %10 = icmp ne i32 %9, 7372
  %11 = and i32 %8, 65535
  %12 = icmp samesign ult i32 %11, 18
  %or.cond = select i1 %10, i1 true, i1 %12
  br i1 %or.cond, label %check_frame_length.exit.thread, label %13

13:                                               ; preds = %1
  %14 = load ptr, ptr %4, align 8, !tbaa !28
  %15 = tail call i32 @avio_rl16(ptr noundef %14) #5
  %16 = mul i32 %15, 100
  %17 = load ptr, ptr %4, align 8, !tbaa !28
  %18 = tail call i32 @avio_rl16(ptr noundef %17) #5
  %19 = mul i32 %18, 100
  %20 = load ptr, ptr %4, align 8, !tbaa !28
  %21 = tail call i32 @avio_rl16(ptr noundef %20) #5
  %22 = load ptr, ptr %4, align 8, !tbaa !28
  %23 = tail call i32 @avio_rl16(ptr noundef %22) #5
  %24 = mul i32 %23, 10
  %25 = load ptr, ptr %4, align 8, !tbaa !28
  %26 = tail call i32 @avio_rl16(ptr noundef %25) #5
  %27 = icmp ne i32 %26, 0
  %28 = load ptr, ptr %4, align 8, !tbaa !28
  %29 = tail call i32 @avio_rl32(ptr noundef %28) #5
  %30 = icmp samesign ugt i32 %11, 19
  br i1 %30, label %31, label %36

31:                                               ; preds = %13
  %32 = load ptr, ptr %4, align 8, !tbaa !28
  %33 = tail call i32 @avio_rl16(ptr noundef %32) #5
  %34 = icmp ne i32 %33, 0
  %35 = zext i1 %34 to i16
  br label %36

36:                                               ; preds = %31, %13
  %37 = phi i16 [ 0, %13 ], [ %35, %31 ]
  switch i32 %16, label %38 [
    i32 96000, label %39
    i32 48000, label %39
    i32 32000, label %39
    i32 24000, label %39
    i32 16000, label %39
    i32 8000, label %39
  ]

38:                                               ; preds = %36
  tail call void (ptr, i32, ptr, ...) @av_log(ptr noundef nonnull %0, i32 noundef 16, ptr noundef nonnull @.str.2, i32 noundef %16) #5
  br label %check_frame_length.exit.thread

39:                                               ; preds = %36, %36, %36, %36, %36, %36
  switch i32 %24, label %40 [
    i32 10000, label %check_frame_length.exit
    i32 7500, label %check_frame_length.exit
    i32 5000, label %check_frame_length.exit
    i32 2500, label %check_frame_length.exit
  ]

40:                                               ; preds = %39
  %41 = sitofp i32 %24 to float
  %42 = fdiv nsz float %41, 1.000000e+03
  %43 = fpext nsz float %42 to double
  tail call void (ptr, i32, ptr, ...) @av_log(ptr noundef nonnull %0, i32 noundef 16, ptr noundef nonnull @.str.3, double noundef %43) #5
  br label %check_frame_length.exit.thread

check_frame_length.exit:                          ; preds = %39, %39, %39, %39
  %44 = tail call ptr @avformat_new_stream(ptr noundef nonnull %0, ptr noundef null) #5
  %.not = icmp eq ptr %44, null
  br i1 %.not, label %check_frame_length.exit.thread, label %45

45:                                               ; preds = %check_frame_length.exit
  tail call void @avpriv_set_pts_info(ptr noundef nonnull %44, i32 noundef 64, i32 noundef 1, i32 noundef %16) #5
  tail call void @avpriv_update_cur_dts(ptr noundef nonnull %0, ptr noundef nonnull %44, i64 noundef 0) #5
  %46 = zext i32 %29 to i64
  %47 = getelementptr inbounds nuw i8, ptr %44, i64 48
  store i64 %46, ptr %47, align 8, !tbaa !29
  %48 = getelementptr inbounds nuw i8, ptr %44, i64 16
  %49 = load ptr, ptr %48, align 8, !tbaa !36
  store i32 1, ptr %49, align 8, !tbaa !37
  %50 = getelementptr inbounds nuw i8, ptr %49, i64 4
  store i32 86122, ptr %50, align 4, !tbaa !40
  %51 = getelementptr inbounds nuw i8, ptr %49, i64 152
  store i32 %16, ptr %51, align 8, !tbaa !41
  %52 = sext i32 %19 to i64
  %53 = getelementptr inbounds nuw i8, ptr %49, i64 48
  store i64 %52, ptr %53, align 8, !tbaa !42
  %54 = getelementptr inbounds nuw i8, ptr %49, i64 132
  store i32 %21, ptr %54, align 4, !tbaa !43
  %55 = tail call i32 @ff_alloc_extradata(ptr noundef nonnull %49, i32 noundef 6) #5
  %56 = icmp slt i32 %55, 0
  br i1 %56, label %check_frame_length.exit.thread, label %57

57:                                               ; preds = %45
  %.lhs.trunc = trunc nuw nsw i32 %24 to i16
  %58 = udiv i16 %.lhs.trunc, 10
  %59 = load ptr, ptr %48, align 8, !tbaa !36
  %60 = getelementptr inbounds nuw i8, ptr %59, i64 16
  %61 = load ptr, ptr %60, align 8, !tbaa !44
  store i16 %58, ptr %61, align 1, !tbaa !12
  %62 = zext i1 %27 to i16
  %63 = load ptr, ptr %48, align 8, !tbaa !36
  %64 = getelementptr inbounds nuw i8, ptr %63, i64 16
  %65 = load ptr, ptr %64, align 8, !tbaa !44
  %66 = getelementptr inbounds nuw i8, ptr %65, i64 2
  store i16 %62, ptr %66, align 1, !tbaa !12
  %67 = load ptr, ptr %48, align 8, !tbaa !36
  %68 = getelementptr inbounds nuw i8, ptr %67, i64 16
  %69 = load ptr, ptr %68, align 8, !tbaa !44
  %70 = getelementptr inbounds nuw i8, ptr %69, i64 4
  store i16 %37, ptr %70, align 1, !tbaa !12
  %71 = zext nneg i32 %24 to i64
  %72 = zext nneg i32 %16 to i64
  %73 = tail call i64 @av_rescale(i64 noundef %71, i64 noundef %72, i64 noundef 1000000) #6
  %74 = trunc i64 %73 to i32
  store i32 %74, ptr %3, align 8, !tbaa !45
  %75 = icmp eq i32 %24, 7500
  %76 = select i1 %75, i64 4000, i64 2500
  %77 = tail call i64 @av_rescale(i64 noundef %76, i64 noundef %72, i64 noundef 1000000) #6
  %78 = trunc i64 %77 to i32
  %.not55 = icmp eq i32 %29, 0
  %79 = add i32 %29, %78
  %80 = select i1 %.not55, i32 -1, i32 %79
  %81 = zext i32 %80 to i64
  %82 = getelementptr inbounds nuw i8, ptr %3, i64 8
  store i64 %81, ptr %82, align 8, !tbaa !47
  br label %check_frame_length.exit.thread

check_frame_length.exit.thread:                   ; preds = %40, %38, %45, %check_frame_length.exit, %1, %57
  %.0 = phi i32 [ 0, %57 ], [ -1094995529, %1 ], [ -12, %check_frame_length.exit ], [ %55, %45 ], [ -1094995529, %38 ], [ -1094995529, %40 ]
  ret i32 %.0
}